target datalayout = "e-m:e-p270:32:32-p271:32:32-p272:64:64-i64:64-i128:128-f80:128-n8:16:32:64-S128"
target triple = "x86_64-pc-linux-gnu"

%"struct.(anonymous namespace)::backup_poller" = type { %struct.grpc_timer, %struct.grpc_closure, %struct.grpc_closure, ptr, ptr, i8, %struct.gpr_refcount, %struct.gpr_refcount }
%struct.grpc_timer = type { i64, i32, i8, ptr, ptr, ptr, %union.anon.4 }
%union.anon.4 = type { %"struct.grpc_event_engine::experimental::EventEngine::TaskHandle" }
%"struct.grpc_event_engine::experimental::EventEngine::TaskHandle" = type { [2 x i64] }
%struct.grpc_closure = type { %union.anon.5, ptr, ptr, %union.anon.6 }
%union.anon.5 = type { ptr }
%union.anon.6 = type { i64 }
%struct.gpr_refcount = type { i64 }

; Function Attrs: mustprogress uwtable
define internal void @_ZL28backup_poller_shutdown_unrefPN12_GLOBAL__N_113backup_pollerE(ptr noundef %0) #4 {
  %2 = alloca ptr, align 8
  store ptr %0, ptr %2, align 8, !tbaa !38
  %3 = load ptr, ptr %2, align 8, !tbaa !38
  %4 = getelementptr inbounds nuw %"struct.(anonymous namespace)::backup_poller", ptr %3, i32 0, i32 7
  %5 = call i32 @gpr_unref(ptr noundef %4)
  %6 = icmp ne i32 %5, 0
  br i1 %6, label %7, label %15

7:                                                ; preds = %1
  %8 = load ptr, ptr %2, align 8, !tbaa !38
  %9 = getelementptr inbounds nuw %"struct.(anonymous namespace)::backup_poller", ptr %8, i32 0, i32 4
  %10 = load ptr, ptr %9, align 8, !tbaa !40
  call void @_Z20grpc_pollset_destroyP12grpc_pollset(ptr noundef %10)
  %11 = load ptr, ptr %2, align 8, !tbaa !38
  %12 = getelementptr inbounds nuw %"struct.(anonymous namespace)::backup_poller", ptr %11, i32 0, i32 4
  %13 = load ptr, ptr %12, align 8, !tbaa !40
  call void @gpr_free(ptr noundef %13)
  %14 = load ptr, ptr %2, align 8, !tbaa !38
  call void @gpr_free(ptr noundef %14)
  br label %15

15:                                               ; preds = %7, %1
  ret void
}

; Function Attrs: mustprogress uwtable
define internal void @_ZL11done_pollerPvN4absl12lts_202407226StatusE(ptr noundef %0, ptr noundef %1) #4 {
  %3 = alloca ptr, align 8
  %4 = alloca ptr, align 8
  store ptr %0, ptr %3, align 8, !tbaa !63
  store ptr %1, ptr %4, align 8, !tbaa !67
  %5 = load ptr, ptr %3, align 8, !tbaa !63
  call void @_ZL28backup_poller_shutdown_unrefPN12_GLOBAL__N_113backup_pollerE(ptr noundef %5)
  ret void
}