; Function Attrs: mustprogress uwtable
define internal void @_ZL11done_pollerPvN4absl12lts_202407226StatusE(ptr noundef %0, ptr readnone captures(none) %1) #3 {
  %3 = getelementptr inbounds nuw i8, ptr %0, i64 152
  %4 = tail call i32 @gpr_unref(ptr noundef nonnull %3)
  %.not.i = icmp eq i32 %4, 0
  br i1 %.not.i, label %_ZL28backup_poller_shutdown_unrefPN12_GLOBAL__N_113backup_pollerE.exit, label %5

5:                                                ; preds = %2
  %6 = getelementptr inbounds nuw i8, ptr %0, i64 128
  %7 = load ptr, ptr %6, align 8, !tbaa !28
  tail call void @_Z20grpc_pollset_destroyP12grpc_pollset(ptr noundef %7)
  %8 = load ptr, ptr %6, align 8, !tbaa !28
  tail call void @gpr_free(ptr noundef %8)
  tail call void @gpr_free(ptr noundef nonnull %0)
  br label %_ZL28backup_poller_shutdown_unrefPN12_GLOBAL__N_113backup_pollerE.exit

_ZL28backup_poller_shutdown_unrefPN12_GLOBAL__N_113backup_pollerE.exit: ; preds = %2, %5
  ret void
}